target datalayout = "e-m:e-p270:32:32-p271:32:32-p272:64:64-i64:64-i128:128-f80:128-n8:16:32:64-S128"
target triple = "x86_64-pc-linux-gnu"

@prev_display_dissector_name = internal global ptr null, align 8
@.str.18 = private unnamed_addr constant [10 x i8] c"\09%s (%s)\0A\00", align 1

; Function Attrs: null_pointer_is_valid sspstrong uwtable
define internal void @display_dissector_names(ptr noundef %0, ptr noundef %1, ptr noundef %2) #0 {
  %4 = alloca ptr, align 8
  %5 = alloca ptr, align 8
  %6 = alloca ptr, align 8
  %7 = alloca i32, align 4
  %8 = alloca ptr, align 8
  %9 = alloca ptr, align 8
  store ptr %0, ptr %4, align 8
  store ptr %1, ptr %5, align 8
  store ptr %2, ptr %6, align 8
  call void @llvm.lifetime.start.p0(i64 4, ptr %7) #6
  call void @llvm.lifetime.start.p0(i64 8, ptr %8) #6
  call void @llvm.lifetime.start.p0(i64 8, ptr %9) #6
  %10 = load ptr, ptr %5, align 8
  %11 = call i32 @dissector_handle_get_protocol_index(ptr noundef %10)
  store i32 %11, ptr %7, align 4
  %12 = load i32, ptr %7, align 4
  %13 = icmp ne i32 %12, -1
  br i1 %13, label %14, label %39

14:                                               ; preds = %3
  %15 = load i32, ptr %7, align 4
  %16 = call ptr @proto_get_protocol_filter_name(i32 noundef %15)
  store ptr %16, ptr %8, align 8
  %17 = load i32, ptr %7, align 4
  %18 = call ptr @proto_get_protocol_name(i32 noundef %17)
  store ptr %18, ptr %9, align 8
  br label %19

19:                                               ; preds = %14
  br label %20

20:                                               ; preds = %19
  br label %21

21:                                               ; preds = %20
  br label %22

22:                                               ; preds = %21
  br label %23

23:                                               ; preds = %22
  br label %24

24:                                               ; preds = %23
  %25 = load ptr, ptr @prev_display_dissector_name, align 8
  %26 = icmp eq ptr %25, null
  br i1 %26, label %32, label %27

27:                                               ; preds = %24
  %28 = load ptr, ptr @prev_display_dissector_name, align 8
  %29 = load ptr, ptr %8, align 8
  %30 = call i32 @strcmp(ptr noundef %28, ptr noundef %29) #7
  %31 = icmp ne i32 %30, 0
  br i1 %31, label %32, label %38

32:                                               ; preds = %27, %24
  %33 = load ptr, ptr %6, align 8
  %34 = load ptr, ptr %8, align 8
  %35 = load ptr, ptr %9, align 8
  %36 = call i32 (ptr, i32, ptr, ...) @__fprintf_chk(ptr noundef %33, i32 noundef 2, ptr noundef @.str.18, ptr noundef %34, ptr noundef %35)
  %37 = load ptr, ptr %8, align 8
  store ptr %37, ptr @prev_display_dissector_name, align 8
  br label %38

38:                                               ; preds = %32, %27
  br label %39

39:                                               ; preds = %38, %3
  call void @llvm.lifetime.end.p0(i64 8, ptr %9) #6
  call void @llvm.lifetime.end.p0(i64 8, ptr %8) #6
  call void @llvm.lifetime.end.p0(i64 4, ptr %7) #6
  ret void
}