; Function Attrs: null_pointer_is_valid sspstrong uwtable
define internal void @display_dissector_names(ptr readnone captures(none) %0, ptr noundef %1, ptr noundef %2) #0 {
  %4 = tail call i32 @dissector_handle_get_protocol_index(ptr noundef %1)
  %.not = icmp eq i32 %4, -1
  br i1 %.not, label %14, label %5

5:                                                ; preds = %3
  %6 = tail call ptr @proto_get_protocol_filter_name(i32 noundef %4)
  %7 = tail call ptr @proto_get_protocol_name(i32 noundef %4)
  %8 = load ptr, ptr @prev_display_dissector_name, align 8
  %9 = icmp eq ptr %8, null
  br i1 %9, label %12, label %10

10:                                               ; preds = %5
  %11 = tail call i32 @strcmp(ptr noundef nonnull dereferenceable(1) %8, ptr noundef %6) #7
  %.not9 = icmp eq i32 %11, 0
  br i1 %.not9, label %14, label %12

12:                                               ; preds = %10, %5
  %13 = tail call i32 (ptr, i32, ptr, ...) @__fprintf_chk(ptr noundef %2, i32 noundef 2, ptr noundef nonnull @.str.18, ptr noundef %6, ptr noundef %7)
  store ptr %6, ptr @prev_display_dissector_name, align 8
  br label %14

14:                                               ; preds = %10, %12, %3
  ret void
}